target datalayout = "e-m:e-p270:32:32-p271:32:32-p272:64:64-i64:64-i128:128-f80:128-n8:16:32:64-S128"
target triple = "x86_64-pc-linux-gnu"

; Function Attrs: mustprogress nounwind uwtable
define void @_ZN10OpenSubdiv6v3_6_03Far8internal11FeatureMask14ReduceFeaturesERKNS1_15TopologyRefiner15AdaptiveOptionsE(ptr noundef nonnull align 4 dereferenceable(2) %0, ptr noundef nonnull align 4 dereferenceable(2) %1) #3 align 2 {
  %3 = alloca ptr, align 8
  %4 = alloca ptr, align 8
  store ptr %0, ptr %3, align 8
  store ptr %1, ptr %4, align 8
  %5 = load ptr, ptr %3, align 8
  %6 = load i16, ptr %5, align 4
  %7 = and i16 %6, -2
  %8 = or i16 %7, 0
  store i16 %8, ptr %5, align 4
  %9 = load i16, ptr %5, align 4
  %10 = and i16 %9, -3
  %11 = or i16 %10, 0
  store i16 %11, ptr %5, align 4
  %12 = load ptr, ptr %4, align 8
  %13 = load i16, ptr %12, align 4
  %14 = lshr i16 %13, 9
  %15 = and i16 %14, 1
  %16 = zext i16 %15 to i32
  %17 = icmp ne i32 %16, 0
  br i1 %17, label %18, label %31

18:                                               ; preds = %2
  %19 = load i16, ptr %5, align 4
  %20 = and i16 %19, -17
  %21 = or i16 %20, 0
  store i16 %21, ptr %5, align 4
  %22 = load i16, ptr %5, align 4
  %23 = and i16 %22, -33
  %24 = or i16 %23, 0
  store i16 %24, ptr %5, align 4
  %25 = load i16, ptr %5, align 4
  %26 = and i16 %25, -65
  %27 = or i16 %26, 0
  store i16 %27, ptr %5, align 4
  %28 = load i16, ptr %5, align 4
  %29 = and i16 %28, -129
  %30 = or i16 %29, 0
  store i16 %30, ptr %5, align 4
  br label %31

31:                                               ; preds = %18, %2
  ret void
}