; Function Attrs: mustprogress nofree norecurse nosync nounwind willreturn memory(argmem: readwrite) uwtable
define void @_ZN10OpenSubdiv6v3_6_03Far8internal11FeatureMask14ReduceFeaturesERKNS1_15TopologyRefiner15AdaptiveOptionsE(ptr nocapture noundef nonnull align 4 dereferenceable(2) %0, ptr nocapture noundef nonnull readonly align 4 dereferenceable(2) %1) local_unnamed_addr #9 align 2 {
  %3 = load i16, ptr %0, align 4
  %4 = and i16 %3, -4
  store i16 %4, ptr %0, align 4
  %5 = load i16, ptr %1, align 4
  %6 = and i16 %5, 512
  %.not = icmp eq i16 %6, 0
  br i1 %.not, label %9, label %7

7:                                                ; preds = %2
  %8 = and i16 %3, -244
  store i16 %8, ptr %0, align 4
  br label %9

9:                                                ; preds = %7, %2
  ret void
}